target datalayout = "e-m:e-p270:32:32-p271:32:32-p272:64:64-i64:64-i128:128-f80:128-n8:16:32:64-S128"
target triple = "x86_64-pc-linux-gnu"

%struct.replay_opts = type { i32, i32, i32, i32, i32, i32, i32, i32, i32, i32, i32, i32, i32, i32, i32, i32, i32, i32, ptr, i32, i32, ptr, ptr, %struct.strvec, ptr, %struct.object_id, i32, ptr, ptr }
%struct.strvec = type { ptr, i64, i64 }
%struct.object_id = type { [32 x i8], i32 }

@empty_strvec = external global [0 x ptr], align 8
@.str = private unnamed_addr constant [14 x i8] c"revert failed\00", align 1

; Function Attrs: nounwind uwtable
define dso_local i32 @cmd_revert(i32 noundef %0, ptr noundef %1, ptr noundef %2, ptr noundef %3) #0 {
  %5 = alloca i32, align 4
  %6 = alloca ptr, align 8
  %7 = alloca ptr, align 8
  %8 = alloca ptr, align 8
  %9 = alloca %struct.replay_opts, align 8
  %10 = alloca i32, align 4
  store i32 %0, ptr %5, align 4, !tbaa !4
  store ptr %1, ptr %6, align 8, !tbaa !8
  store ptr %2, ptr %7, align 8, !tbaa !11
  store ptr %3, ptr %8, align 8, !tbaa !13
  call void @llvm.lifetime.start.p0(i64 192, ptr %9) #9
  call void @llvm.memset.p0.i64(ptr align 8 %9, i8 0, i64 192, i1 false)
  %11 = getelementptr inbounds nuw %struct.replay_opts, ptr %9, i32 0, i32 0
  store i32 -1, ptr %11, align 8, !tbaa !15
  %12 = getelementptr inbounds nuw %struct.replay_opts, ptr %9, i32 0, i32 1
  store i32 -1, ptr %12, align 4, !tbaa !22
  %13 = getelementptr inbounds nuw %struct.replay_opts, ptr %9, i32 0, i32 23
  %14 = getelementptr inbounds nuw %struct.strvec, ptr %13, i32 0, i32 0
  store ptr @empty_strvec, ptr %14, align 8, !tbaa !23
  %15 = getelementptr inbounds nuw %struct.replay_opts, ptr %9, i32 0, i32 28
  %16 = call ptr @replay_ctx_new()
  store ptr %16, ptr %15, align 8, !tbaa !24
  call void @llvm.lifetime.start.p0(i64 4, ptr %10) #9
  %17 = getelementptr inbounds nuw %struct.replay_opts, ptr %9, i32 0, i32 0
  store i32 0, ptr %17, align 8, !tbaa !15
  call void @sequencer_init_config(ptr noundef %9)
  %18 = load i32, ptr %5, align 4, !tbaa !4
  %19 = load ptr, ptr %6, align 8, !tbaa !8
  %20 = load ptr, ptr %7, align 8, !tbaa !11
  %21 = call i32 @run_sequencer(i32 noundef %18, ptr noundef %19, ptr noundef %20, ptr noundef %9)
  store i32 %21, ptr %10, align 4, !tbaa !4
  %22 = load i32, ptr %10, align 4, !tbaa !4
  %23 = icmp slt i32 %22, 0
  br i1 %23, label %24, label %26

24:                                               ; preds = %4
  %25 = call ptr @_(ptr noundef @.str)
  call void (ptr, ...) @die(ptr noundef %25) #10
  unreachable

26:                                               ; preds = %4
  call void @replay_opts_release(ptr noundef %9)
  %27 = load i32, ptr %10, align 4, !tbaa !4
  call void @llvm.lifetime.end.p0(i64 4, ptr %10) #9
  call void @llvm.lifetime.end.p0(i64 192, ptr %9) #9
  ret i32 %27
}