; Function Attrs: nounwind uwtable
define dso_local range(i32 0, -2147483648) i32 @cmd_revert(i32 noundef %0, ptr noundef %1, ptr noundef %2, ptr noundef readnone captures(none) %3) local_unnamed_addr #0 {
  %5 = alloca %struct.replay_opts, align 8
  call void @llvm.lifetime.start.p0(i64 192, ptr nonnull %5) #13
  %6 = getelementptr inbounds nuw i8, ptr %5, i64 8
  call void @llvm.memset.p0.i64(ptr noundef nonnull align 8 dereferenceable(192) %6, i8 0, i64 176, i1 false)
  %7 = getelementptr inbounds nuw i8, ptr %5, i64 4
  store i32 -1, ptr %7, align 4, !tbaa !4
  %8 = getelementptr inbounds nuw i8, ptr %5, i64 104
  store ptr @empty_strvec, ptr %8, align 8, !tbaa !17
  %9 = getelementptr inbounds nuw i8, ptr %5, i64 184
  %10 = tail call ptr @replay_ctx_new() #13
  store ptr %10, ptr %9, align 8, !tbaa !18
  store i32 0, ptr %5, align 8, !tbaa !19
  call void @sequencer_init_config(ptr noundef nonnull %5) #13
  %11 = call fastcc i32 @run_sequencer(i32 noundef %0, ptr noundef %1, ptr noundef %2, ptr noundef %5)
  %12 = icmp slt i32 %11, 0
  br i1 %12, label %13, label %15

13:                                               ; preds = %4
  %14 = call fastcc ptr @_(ptr noundef nonnull @.str)
  call void (ptr, ...) @die(ptr noundef %14) #14
  unreachable

15:                                               ; preds = %4
  call void @replay_opts_release(ptr noundef nonnull %5) #13
  call void @llvm.lifetime.end.p0(i64 192, ptr nonnull %5) #13
  ret i32 %11
}